target datalayout = "e-m:e-p270:32:32-p271:32:32-p272:64:64-i64:64-i128:128-f80:128-n8:16:32:64-S128"
target triple = "x86_64-pc-linux-gnu"

@.str.90 = private unnamed_addr constant [7 x i8] c"test.v\00", align 1
@.str.91 = private unnamed_addr constant [9 x i8] c"test.aig\00", align 1

; Function Attrs: nounwind uwtable
define void @Io_ReadWordTest(ptr noundef %0) #0 {
  %2 = alloca ptr, align 8
  %3 = alloca ptr, align 8
  %4 = alloca ptr, align 8
  store ptr %0, ptr %2, align 8
  %5 = load ptr, ptr %2, align 8
  %6 = call ptr @Wlc_ReadVer(ptr noundef %5, ptr noundef null, i32 noundef 0)
  store ptr %6, ptr %4, align 8
  %7 = load ptr, ptr %4, align 8
  %8 = icmp eq ptr %7, null
  br i1 %8, label %9, label %10

9:                                                ; preds = %1
  br label %17

10:                                               ; preds = %1
  %11 = load ptr, ptr %4, align 8
  call void @Wlc_WriteVer(ptr noundef %11, ptr noundef @.str.90, i32 noundef 0, i32 noundef 0)
  %12 = load ptr, ptr %4, align 8
  %13 = call ptr @Wlc_NtkBitBlast(ptr noundef %12, ptr noundef null)
  store ptr %13, ptr %3, align 8
  %14 = load ptr, ptr %3, align 8
  call void @Gia_AigerWrite(ptr noundef %14, ptr noundef @.str.91, i32 noundef 0, i32 noundef 0, i32 noundef 0)
  %15 = load ptr, ptr %3, align 8
  call void @Gia_ManStop(ptr noundef %15)
  %16 = load ptr, ptr %4, align 8
  call void @Wlc_NtkFree(ptr noundef %16)
  br label %17

17:                                               ; preds = %10, %9
  ret void
}