; Function Attrs: nounwind uwtable
define void @Io_ReadWordTest(ptr noundef %0) local_unnamed_addr #0 {
  %2 = tail call ptr @Wlc_ReadVer(ptr noundef %0, ptr noundef null, i32 noundef 0)
  %3 = icmp eq ptr %2, null
  br i1 %3, label %6, label %4

4:                                                ; preds = %1
  tail call void @Wlc_WriteVer(ptr noundef nonnull %2, ptr noundef nonnull @.str.90, i32 noundef 0, i32 noundef 0) #24
  %5 = tail call ptr @Wlc_NtkBitBlast(ptr noundef nonnull %2, ptr noundef null) #24
  tail call void @Gia_AigerWrite(ptr noundef %5, ptr noundef nonnull @.str.91, i32 noundef 0, i32 noundef 0, i32 noundef 0) #24
  tail call void @Gia_ManStop(ptr noundef %5) #24
  tail call void @Wlc_NtkFree(ptr noundef nonnull %2) #24
  br label %6

6:                                                ; preds = %1, %4
  ret void
}